; Function Attrs: mustprogress nounwind null_pointer_is_valid sspstrong uwtable
define void @_ZN21FilterExpressionFrameD2Ev(ptr noundef align 8 dereferenceable_or_null(68) initializes((0, 8), (16, 24)) %0) unnamed_addr #4 align 2 {
  store ptr getelementptr inbounds nuw inrange(-16, 424) (i8, ptr @_ZTV21FilterExpressionFrame, i64 16), ptr %0, align 8
  %2 = getelementptr inbounds nuw i8, ptr %0, i64 16
  store ptr getelementptr inbounds nuw inrange(-16, 64) (i8, ptr @_ZTV21FilterExpressionFrame, i64 456), ptr %2, align 8
  %3 = getelementptr inbounds nuw i8, ptr %0, i64 56
  %4 = load ptr, ptr %3, align 8
  %5 = icmp eq ptr %4, null
  br i1 %5, label %7, label %6

6:                                                ; preds = %1
  tail call void @_ZdlPvm(ptr noundef nonnull %4, i64 noundef 128) #14
  br label %7

7:                                                ; preds = %6, %1
  tail call void @_ZN6QFrameD2Ev(ptr noundef align 8 dereferenceable_or_null(56) %0) #13
  ret void
}